; Function Attrs: mustprogress uwtable
define dso_local void @_ZNK4pbrt13PlanarMapping8ToStringB5cxx11Ev(ptr noalias nonnull sret(%"class.std::__cxx11::basic_string") align 8 %agg.result, ptr noundef nonnull align 4 dereferenceable(160) %this) local_unnamed_addr #0 align 2 personality ptr @__gxx_personality_v0 {
entry:
  %vs = getelementptr inbounds i8, ptr %this, i64 128
  %vt = getelementptr inbounds i8, ptr %this, i64 140
  %ds = getelementptr inbounds i8, ptr %this, i64 152
  %dt = getelementptr inbounds i8, ptr %this, i64 156
  tail call void @_ZNSt7__cxx1112basic_stringIcSt11char_traitsIcESaIcEEC1Ev(ptr noundef nonnull align 8 dereferenceable(32) %agg.result) #23
  invoke void @_ZN4pbrt6detail21stringPrintfRecursiveIRKNS_7Vector3IfEEJS5_RKfS7_EEEvPNSt7__cxx1112basic_stringIcSt11char_traitsIcESaIcEEEPKcOT_DpOT0_(ptr noundef nonnull %agg.result, ptr noundef nonnull @.str.20, ptr noundef nonnull align 4 dereferenceable(12) %vs, ptr noundef nonnull align 4 dereferenceable(12) %vt, ptr noundef nonnull align 4 dereferenceable(4) %ds, ptr noundef nonnull align 4 dereferenceable(4) %dt)
          to label %_ZN4pbrt12StringPrintfIJRKNS_7Vector3IfEES4_RKfS6_EEENSt7__cxx1112basic_stringIcSt11char_traitsIcESaIcEEEPKcDpOT_.exit unwind label %lpad.i

lpad.i:                                           ; preds = %entry
  %0 = landingpad { ptr, i32 }
          cleanup
  tail call void @_ZNSt7__cxx1112basic_stringIcSt11char_traitsIcESaIcEED1Ev(ptr noundef nonnull align 8 dereferenceable(32) %agg.result) #23
  resume { ptr, i32 } %0

_ZN4pbrt12StringPrintfIJRKNS_7Vector3IfEES4_RKfS6_EEENSt7__cxx1112basic_stringIcSt11char_traitsIcESaIcEEEPKcDpOT_.exit: ; preds = %entry
  ret void
}